target datalayout = "e-m:e-p270:32:32-p271:32:32-p272:64:64-i64:64-i128:128-f80:128-n8:16:32:64-S128"
target triple = "x86_64-pc-linux-gnu"

%"struct.std::pair.2" = type <{ ptr, i32, [4 x i8] }>

; Function Attrs: mustprogress nounwind uwtable
define linkonce_odr void @_ZNSt4pairIPKcjEC2IDniTnNSt9enable_ifIXaaclsr5_PCCPE22_MoveConstructiblePairIT_T0_EEclsr5_PCCPE30_ImplicitlyMoveConvertiblePairIS5_S6_EEEbE4typeELb1EEEOS5_OS6_(ptr noundef nonnull align 8 dereferenceable(12) %0, ptr noundef nonnull align 8 dereferenceable(8) %1, ptr noundef nonnull align 4 dereferenceable(4) %2) unnamed_addr #7 comdat align 2 {
  %4 = alloca ptr, align 8
  %5 = alloca ptr, align 8
  %6 = alloca ptr, align 8
  store ptr %0, ptr %4, align 8, !tbaa !97
  store ptr %1, ptr %5, align 8, !tbaa !45
  store ptr %2, ptr %6, align 8, !tbaa !29
  %7 = load ptr, ptr %4, align 8
  %8 = getelementptr inbounds nuw %"struct.std::pair.2", ptr %7, i32 0, i32 0
  store ptr null, ptr %8, align 8, !tbaa !99
  %9 = getelementptr inbounds nuw %"struct.std::pair.2", ptr %7, i32 0, i32 1
  %10 = load ptr, ptr %6, align 8, !tbaa !29
  %11 = load i32, ptr %10, align 4, !tbaa !19
  store i32 %11, ptr %9, align 8, !tbaa !101
  ret void
}

; Function Attrs: mustprogress nounwind uwtable
define linkonce_odr void @_ZNSt4pairIPKcjEC2IS1_RjTnNSt9enable_ifIXaaclsr5_PCCPE22_MoveConstructiblePairIT_T0_EEclsr5_PCCPE30_ImplicitlyMoveConvertiblePairIS6_S7_EEEbE4typeELb1EEEOS6_OS7_(ptr noundef nonnull align 8 dereferenceable(12) %0, ptr noundef nonnull align 8 dereferenceable(8) %1, ptr noundef nonnull align 4 dereferenceable(4) %2) unnamed_addr #7 comdat align 2 {
  %4 = alloca ptr, align 8
  %5 = alloca ptr, align 8
  %6 = alloca ptr, align 8
  store ptr %0, ptr %4, align 8, !tbaa !97
  store ptr %1, ptr %5, align 8, !tbaa !54
  store ptr %2, ptr %6, align 8, !tbaa !29
  %7 = load ptr, ptr %4, align 8
  %8 = getelementptr inbounds nuw %"struct.std::pair.2", ptr %7, i32 0, i32 0
  %9 = load ptr, ptr %5, align 8, !tbaa !54
  %10 = load ptr, ptr %9, align 8, !tbaa !16
  store ptr %10, ptr %8, align 8, !tbaa !99
  %11 = getelementptr inbounds nuw %"struct.std::pair.2", ptr %7, i32 0, i32 1
  %12 = load ptr, ptr %6, align 8, !tbaa !29
  %13 = load i32, ptr %12, align 4, !tbaa !19
  store i32 %13, ptr %11, align 8, !tbaa !101
  ret void
}

; Function Attrs: mustprogress uwtable
define { ptr, i32 } @_ZN6google8protobuf8internal17VarintParseSlow32EPKcj(ptr noundef %0, i32 noundef %1) #4 {
  %3 = alloca %"struct.std::pair.2", align 8
  %4 = alloca ptr, align 8
  %5 = alloca i32, align 4
  %6 = alloca i32, align 4
  %7 = alloca i32, align 4
  %8 = alloca i32, align 4
  %9 = alloca ptr, align 8
  %10 = alloca i32, align 4
  %11 = alloca i32, align 4
  %12 = alloca ptr, align 8
  %13 = alloca ptr, align 8
  %14 = alloca i32, align 4
  store ptr %0, ptr %4, align 8, !tbaa !16
  store i32 %1, ptr %5, align 4, !tbaa !19
  call void @llvm.lifetime.start.p0(i64 4, ptr %6) #3
  store i32 2, ptr %6, align 4, !tbaa !19
  br label %15

15:                                               ; preds = %50, %2
  %16 = load i32, ptr %6, align 4, !tbaa !19
  %17 = icmp ult i32 %16, 5
  br i1 %17, label %19, label %18

18:                                               ; preds = %15
  store i32 2, ptr %7, align 4
  br label %53

19:                                               ; preds = %15
  call void @llvm.lifetime.start.p0(i64 4, ptr %8) #3
  %20 = load ptr, ptr %4, align 8, !tbaa !16
  %21 = load i32, ptr %6, align 4, !tbaa !19
  %22 = zext i32 %21 to i64
  %23 = getelementptr inbounds nuw i8, ptr %20, i64 %22
  %24 = load i8, ptr %23, align 1, !tbaa !88
  %25 = zext i8 %24 to i32
  store i32 %25, ptr %8, align 4, !tbaa !19
  %26 = load i32, ptr %8, align 4, !tbaa !19
  %27 = sub i32 %26, 1
  %28 = load i32, ptr %6, align 4, !tbaa !19
  %29 = mul i32 7, %28
  %30 = shl i32 %27, %29
  %31 = load i32, ptr %5, align 4, !tbaa !19
  %32 = add i32 %31, %30
  store i32 %32, ptr %5, align 4, !tbaa !19
  %33 = load i32, ptr %8, align 4, !tbaa !19
  %34 = icmp ult i32 %33, 128
  %35 = xor i1 %34, true
  %36 = xor i1 %35, true
  %37 = zext i1 %36 to i64
  %38 = call i64 @llvm.expect.i64(i64 %37, i64 1)
  %39 = icmp ne i64 %38, 0
  br i1 %39, label %40, label %46

40:                                               ; preds = %19
  call void @llvm.lifetime.start.p0(i64 8, ptr %9) #3
  %41 = load ptr, ptr %4, align 8, !tbaa !16
  %42 = load i32, ptr %6, align 4, !tbaa !19
  %43 = zext i32 %42 to i64
  %44 = getelementptr inbounds nuw i8, ptr %41, i64 %43
  %45 = getelementptr inbounds i8, ptr %44, i64 1
  store ptr %45, ptr %9, align 8, !tbaa !16
  call void @_ZNSt4pairIPKcjEC2IS1_RjTnNSt9enable_ifIXaaclsr5_PCCPE22_MoveConstructiblePairIT_T0_EEclsr5_PCCPE30_ImplicitlyMoveConvertiblePairIS6_S7_EEEbE4typeELb1EEEOS6_OS7_(ptr noundef nonnull align 8 dereferenceable(12) %3, ptr noundef nonnull align 8 dereferenceable(8) %9, ptr noundef nonnull align 4 dereferenceable(4) %5)
  call void @llvm.lifetime.end.p0(i64 8, ptr %9) #3
  store i32 1, ptr %7, align 4
  br label %47

46:                                               ; preds = %19
  store i32 0, ptr %7, align 4
  br label %47

47:                                               ; preds = %46, %40
  call void @llvm.lifetime.end.p0(i64 4, ptr %8) #3
  %48 = load i32, ptr %7, align 4
  switch i32 %48, label %53 [
    i32 0, label %49
  ]

49:                                               ; preds = %47
  br label %50

50:                                               ; preds = %49
  %51 = load i32, ptr %6, align 4, !tbaa !19
  %52 = add i32 %51, 1
  store i32 %52, ptr %6, align 4, !tbaa !19
  br label %15, !llvm.loop !95

53:                                               ; preds = %47, %18
  call void @llvm.lifetime.end.p0(i64 4, ptr %6) #3
  %54 = load i32, ptr %7, align 4
  switch i32 %54, label %92 [
    i32 2, label %55
    i32 1, label %90
  ]

55:                                               ; preds = %53
  call void @llvm.lifetime.start.p0(i64 4, ptr %10) #3
  store i32 5, ptr %10, align 4, !tbaa !19
  br label %56

56:                                               ; preds = %84, %55
  %57 = load i32, ptr %10, align 4, !tbaa !19
  %58 = icmp ult i32 %57, 10
  br i1 %58, label %60, label %59

59:                                               ; preds = %56
  store i32 5, ptr %7, align 4
  br label %87

60:                                               ; preds = %56
  call void @llvm.lifetime.start.p0(i64 4, ptr %11) #3
  %61 = load ptr, ptr %4, align 8, !tbaa !16
  %62 = load i32, ptr %10, align 4, !tbaa !19
  %63 = zext i32 %62 to i64
  %64 = getelementptr inbounds nuw i8, ptr %61, i64 %63
  %65 = load i8, ptr %64, align 1, !tbaa !88
  %66 = zext i8 %65 to i32
  store i32 %66, ptr %11, align 4, !tbaa !19
  %67 = load i32, ptr %11, align 4, !tbaa !19
  %68 = icmp ult i32 %67, 128
  %69 = xor i1 %68, true
  %70 = xor i1 %69, true
  %71 = zext i1 %70 to i64
  %72 = call i64 @llvm.expect.i64(i64 %71, i64 1)
  %73 = icmp ne i64 %72, 0
  br i1 %73, label %74, label %80

74:                                               ; preds = %60
  call void @llvm.lifetime.start.p0(i64 8, ptr %12) #3
  %75 = load ptr, ptr %4, align 8, !tbaa !16
  %76 = load i32, ptr %10, align 4, !tbaa !19
  %77 = zext i32 %76 to i64
  %78 = getelementptr inbounds nuw i8, ptr %75, i64 %77
  %79 = getelementptr inbounds i8, ptr %78, i64 1
  store ptr %79, ptr %12, align 8, !tbaa !16
  call void @_ZNSt4pairIPKcjEC2IS1_RjTnNSt9enable_ifIXaaclsr5_PCCPE22_MoveConstructiblePairIT_T0_EEclsr5_PCCPE30_ImplicitlyMoveConvertiblePairIS6_S7_EEEbE4typeELb1EEEOS6_OS7_(ptr noundef nonnull align 8 dereferenceable(12) %3, ptr noundef nonnull align 8 dereferenceable(8) %12, ptr noundef nonnull align 4 dereferenceable(4) %5)
  call void @llvm.lifetime.end.p0(i64 8, ptr %12) #3
  store i32 1, ptr %7, align 4
  br label %81

80:                                               ; preds = %60
  store i32 0, ptr %7, align 4
  br label %81

81:                                               ; preds = %80, %74
  call void @llvm.lifetime.end.p0(i64 4, ptr %11) #3
  %82 = load i32, ptr %7, align 4
  switch i32 %82, label %87 [
    i32 0, label %83
  ]

83:                                               ; preds = %81
  br label %84

84:                                               ; preds = %83
  %85 = load i32, ptr %10, align 4, !tbaa !19
  %86 = add i32 %85, 1
  store i32 %86, ptr %10, align 4, !tbaa !19
  br label %56, !llvm.loop !96

87:                                               ; preds = %81, %59
  call void @llvm.lifetime.end.p0(i64 4, ptr %10) #3
  %88 = load i32, ptr %7, align 4
  switch i32 %88, label %92 [
    i32 5, label %89
    i32 1, label %90
  ]

89:                                               ; preds = %87
  call void @llvm.lifetime.start.p0(i64 8, ptr %13) #3
  store ptr null, ptr %13, align 8, !tbaa !31
  call void @llvm.lifetime.start.p0(i64 4, ptr %14) #3
  store i32 0, ptr %14, align 4, !tbaa !19
  call void @_ZNSt4pairIPKcjEC2IDniTnNSt9enable_ifIXaaclsr5_PCCPE22_MoveConstructiblePairIT_T0_EEclsr5_PCCPE30_ImplicitlyMoveConvertiblePairIS5_S6_EEEbE4typeELb1EEEOS5_OS6_(ptr noundef nonnull align 8 dereferenceable(12) %3, ptr noundef nonnull align 8 dereferenceable(8) %13, ptr noundef nonnull align 4 dereferenceable(4) %14)
  call void @llvm.lifetime.end.p0(i64 4, ptr %14) #3
  call void @llvm.lifetime.end.p0(i64 8, ptr %13) #3
  br label %90

90:                                               ; preds = %89, %87, %53
  %91 = load { ptr, i32 }, ptr %3, align 8
  ret { ptr, i32 } %91

92:                                               ; preds = %87, %53
  unreachable
}